target datalayout = "e-m:e-p270:32:32-p271:32:32-p272:64:64-i64:64-i128:128-f80:128-n8:16:32:64-S128"
target triple = "x86_64-pc-linux-gnu"

%struct.IntegerSet = type { ptr, i64, i64, i64, i32, ptr, [11 x ptr], ptr, [482 x i64], i32, i8, ptr, i32, i32, ptr, i32, [241 x i64] }

; Function Attrs: nounwind uwtable
define dso_local void @intset_begin_iterate(ptr noundef %0) #0 {
  %2 = alloca ptr, align 8
  store ptr %0, ptr %2, align 8
  %3 = load ptr, ptr %2, align 8
  %4 = getelementptr inbounds nuw %struct.IntegerSet, ptr %3, i32 0, i32 10
  store i8 1, ptr %4, align 4
  %5 = load ptr, ptr %2, align 8
  %6 = getelementptr inbounds nuw %struct.IntegerSet, ptr %5, i32 0, i32 7
  %7 = load ptr, ptr %6, align 8
  %8 = load ptr, ptr %2, align 8
  %9 = getelementptr inbounds nuw %struct.IntegerSet, ptr %8, i32 0, i32 14
  store ptr %7, ptr %9, align 8
  %10 = load ptr, ptr %2, align 8
  %11 = getelementptr inbounds nuw %struct.IntegerSet, ptr %10, i32 0, i32 15
  store i32 0, ptr %11, align 8
  %12 = load ptr, ptr %2, align 8
  %13 = getelementptr inbounds nuw %struct.IntegerSet, ptr %12, i32 0, i32 13
  store i32 0, ptr %13, align 4
  %14 = load ptr, ptr %2, align 8
  %15 = getelementptr inbounds nuw %struct.IntegerSet, ptr %14, i32 0, i32 12
  store i32 0, ptr %15, align 8
  %16 = load ptr, ptr %2, align 8
  %17 = getelementptr inbounds nuw %struct.IntegerSet, ptr %16, i32 0, i32 16
  %18 = getelementptr inbounds [241 x i64], ptr %17, i64 0, i64 0
  %19 = load ptr, ptr %2, align 8
  %20 = getelementptr inbounds nuw %struct.IntegerSet, ptr %19, i32 0, i32 11
  store ptr %18, ptr %20, align 8
  ret void
}