; Function Attrs: mustprogress nofree norecurse nosync nounwind willreturn memory(argmem: readwrite) uwtable
define dso_local void @intset_begin_iterate(ptr noundef initializes((4004, 4005), (4016, 4036)) %0) local_unnamed_addr #6 {
  %2 = getelementptr inbounds nuw i8, ptr %0, i64 4004
  store i8 1, ptr %2, align 4
  %3 = getelementptr inbounds nuw i8, ptr %0, i64 136
  %4 = load ptr, ptr %3, align 8
  %5 = getelementptr inbounds nuw i8, ptr %0, i64 4024
  store ptr %4, ptr %5, align 8
  %6 = getelementptr inbounds nuw i8, ptr %0, i64 4032
  store i32 0, ptr %6, align 8
  %7 = getelementptr inbounds nuw i8, ptr %0, i64 4020
  store i32 0, ptr %7, align 4
  %8 = getelementptr inbounds nuw i8, ptr %0, i64 4016
  store i32 0, ptr %8, align 8
  %9 = getelementptr inbounds nuw i8, ptr %0, i64 4040
  %10 = getelementptr inbounds nuw i8, ptr %0, i64 4008
  store ptr %9, ptr %10, align 8
  ret void
}